; Function Attrs: mustprogress nounwind uwtable
define hidden noundef ptr @_ZN12NativeLookup13long_jni_nameERK12methodHandle(ptr nocapture noundef nonnull readonly align 8 dereferenceable(16) %0) local_unnamed_addr #0 align 2 {
  %2 = alloca %class.stringStream, align 8
  call void @_ZN12stringStreamC1Em(ptr noundef nonnull align 8 dereferenceable(129) %2, i64 noundef 0) #10
  %3 = load ptr, ptr %0, align 8
  %4 = getelementptr inbounds i8, ptr %3, i64 8
  %5 = load ptr, ptr %4, align 8
  %6 = getelementptr inbounds i8, ptr %5, i64 8
  %7 = load ptr, ptr %6, align 8
  %8 = getelementptr inbounds i8, ptr %5, i64 38
  %9 = load i16, ptr %8, align 2
  %10 = getelementptr inbounds i8, ptr %7, i64 72
  %11 = zext i16 %9 to i64
  %12 = getelementptr inbounds i64, ptr %10, i64 %11
  %13 = load ptr, ptr %12, align 8
  call void (ptr, ptr, ...) @_ZN12outputStream5printEPKcz(ptr noundef nonnull align 8 dereferenceable(56) %2, ptr noundef nonnull @.str.5) #10
  %14 = getelementptr inbounds i8, ptr %13, i64 6
  %15 = getelementptr inbounds i8, ptr %13, i64 4
  %16 = load i16, ptr %15, align 4
  %17 = zext i16 %16 to i32
  %.not12 = icmp eq i16 %16, 0
  br i1 %.not12, label %.critedge, label %.lr.ph.preheader

.lr.ph.preheader:                                 ; preds = %1
  %wide.trip.count = zext i16 %16 to i64
  br label %.lr.ph

.lr.ph:                                           ; preds = %.lr.ph.preheader, %20
  %indvars.iv = phi i64 [ 0, %.lr.ph.preheader ], [ %indvars.iv.next, %20 ]
  %18 = getelementptr inbounds i8, ptr %14, i64 %indvars.iv
  %19 = load i8, ptr %18, align 1
  %.not = icmp eq i8 %19, 41
  br i1 %.not, label %.critedge.loopexit.split.loop.exit14, label %20

20:                                               ; preds = %.lr.ph
  %indvars.iv.next = add nuw nsw i64 %indvars.iv, 1
  %exitcond.not = icmp eq i64 %indvars.iv.next, %wide.trip.count
  br i1 %exitcond.not, label %.critedge, label %.lr.ph, !llvm.loop !6

.critedge.loopexit.split.loop.exit14:             ; preds = %.lr.ph
  %21 = trunc nuw nsw i64 %indvars.iv to i32
  br label %.critedge

.critedge:                                        ; preds = %20, %.critedge.loopexit.split.loop.exit14, %1
  %.0.lcssa = phi i32 [ 0, %1 ], [ %21, %.critedge.loopexit.split.loop.exit14 ], [ %17, %20 ]
  %22 = call fastcc noundef zeroext i1 @_ZL19map_escaped_name_onP12stringStreamP6Symbolii(ptr noundef nonnull %2, ptr noundef nonnull %13, i32 noundef 1, i32 noundef %.0.lcssa)
  br i1 %22, label %23, label %25

23:                                               ; preds = %.critedge
  %24 = call noundef ptr @_ZNK12stringStream9as_stringEb(ptr noundef nonnull align 8 dereferenceable(129) %2, i1 noundef zeroext false) #10
  br label %25

25:                                               ; preds = %.critedge, %23
  %.08 = phi ptr [ %24, %23 ], [ null, %.critedge ]
  call void @_ZN12stringStreamD1Ev(ptr noundef nonnull align 8 dereferenceable(129) %2) #10
  ret ptr %.08
}